

Microchip Technology PIC18 LITE Macro Assembler V1.35 build -356382666 
                                                                                               Tue Jun 14 12:56:26 2022

Microchip Technology Omniscient Code Generator v1.35 (Free mode) build 201507080246
     1                           	processor	18F4550
     2                           	fnconf	rparam,??,?,0
     3                           	opt	pw 120
     4                           	opt	lm
     5                           	psect	idataCOMRAM,global,class=CODE,delta=1
     6                           	psect	cinit,global,reloc=2,class=CODE,delta=1
     7                           	psect	bssCOMRAM,global,class=COMRAM,space=1,delta=1
     8                           	psect	dataCOMRAM,global,class=COMRAM,space=1,delta=1
     9                           	psect	cstackCOMRAM,global,class=COMRAM,space=1,delta=1
    10                           	psect	text0,global,reloc=2,class=CODE,delta=1
    11                           	psect	intcode,global,reloc=2,class=CODE,delta=1
    12                           	psect	intcode_body,global,reloc=2,class=CODE,delta=1
    13                           	psect	intsave_regs,global,class=BIGRAM,space=1,delta=1
    14                           	psect	rparam,global,class=COMRAM,space=1,delta=1
    15                           	psect	temp,global,ovrld,common,class=COMRAM,space=1,delta=1
    16  0000                     
    17                           	psect	idataCOMRAM
    18  00019A                     __pidataCOMRAM:
    19                           	opt stack 0
    20                           
    21                           ;initializer for _DEC
    22  00019A  007F               	dw	127
    23  00019C  000C               	dw	12
    24  00019E  00B6               	dw	182
    25  0001A0  009E               	dw	158
    26  0001A2  00CC               	dw	204
    27  0001A4  00DA               	dw	218
    28  0001A6  00FA               	dw	250
    29  0001A8  000E               	dw	14
    30  0001AA  00FE               	dw	254
    31  0001AC  00DE               	dw	222
    32                           
    33                           ;initializer for _UNI
    34  0001AE  003F               	dw	63
    35  0001B0  0006               	dw	6
    36  0001B2  005B               	dw	91
    37  0001B4  004F               	dw	79
    38  0001B6  0066               	dw	102
    39  0001B8  006D               	dw	109
    40  0001BA  007D               	dw	125
    41  0001BC  0007               	dw	7
    42  0001BE  007F               	dw	127
    43  0001C0  0067               	dw	103
    44  0000                     _ADCON1	set	4033
    45  0000                     _INTCON2bits	set	4081
    46  0000                     _INTCON3bits	set	4080
    47  0000                     _INTCONbits	set	4082
    48  0000                     _LATC	set	3979
    49  0000                     _LATD	set	3980
    50  0000                     _RCONbits	set	4048
    51  0000                     _TRISBbits	set	3987
    52  0000                     _TRISC	set	3988
    53  0000                     _TRISD	set	3989
    54                           
    55                           ; #config settings
    56  0000                     
    57                           	psect	cinit
    58  000166                     __pcinit:
    59                           	opt stack 0
    60  000166                     start_initialization:
    61                           	opt stack 0
    62  000166                     __initialization:
    63                           	opt stack 0
    64                           
    65                           ; Clear objects allocated to COMRAM (5 bytes)
    66  000166  6A3B               	clrf	(__pbssCOMRAM+4)& (0+255),c
    67  000168  6A3A               	clrf	(__pbssCOMRAM+3)& (0+255),c
    68  00016A  6A39               	clrf	(__pbssCOMRAM+2)& (0+255),c
    69  00016C  6A38               	clrf	(__pbssCOMRAM+1)& (0+255),c
    70  00016E  6A37               	clrf	__pbssCOMRAM& (0+255),c
    71                           
    72                           ; Initialize objects allocated to COMRAM (40 bytes)
    73                           ; load TBLPTR registers with __pidataCOMRAM
    74  000170  0E9A               	movlw	low __pidataCOMRAM
    75  000172  6EF6               	movwf	tblptrl,c
    76  000174  0E01               	movlw	high __pidataCOMRAM
    77  000176  6EF7               	movwf	tblptrh,c
    78  000178  0E00               	movlw	low (__pidataCOMRAM shr (0+16))
    79  00017A  6EF8               	movwf	tblptru,c
    80  00017C  EE00  F001         	lfsr	0,__pdataCOMRAM
    81  000180  EE10 F028          	lfsr	1,40
    82  000184                     copy_data0:
    83  000184  0009               	tblrd		*+
    84  000186  CFF5 FFEE          	movff	tablat,postinc0
    85  00018A  50E5               	movf	postdec1,w,c
    86  00018C  50E1               	movf	fsr1l,w,c
    87  00018E  E1FA               	bnz	copy_data0
    88  000190                     end_of_initialization:
    89                           	opt stack 0
    90  000190                     __end_of__initialization:
    91                           	opt stack 0
    92  000190  903C               	bcf	int$flags,0,c	;clear compiler interrupt flag (level 1)
    93  000192  923C               	bcf	int$flags,1,c	;clear compiler interrupt flag (level 2)
    94  000194  0100               	movlb	0
    95  000196  EF8C  F000         	goto	_main	;jump to C main() function
    96                           tblptru	equ	0xFF8
    97                           tblptrh	equ	0xFF7
    98                           tblptrl	equ	0xFF6
    99                           tablat	equ	0xFF5
   100                           postinc0	equ	0xFEE
   101                           postdec1	equ	0xFE5
   102                           fsr1l	equ	0xFE1
   103                           
   104                           	psect	bssCOMRAM
   105  000037                     __pbssCOMRAM:
   106                           	opt stack 0
   107  000037                     _decenas:
   108                           	opt stack 0
   109  000037                     	ds	2
   110  000039                     _unidades:
   111                           	opt stack 0
   112  000039                     	ds	2
   113  00003B                     _i:
   114                           	opt stack 0
   115  00003B                     	ds	1
   116                           tblptru	equ	0xFF8
   117                           tblptrh	equ	0xFF7
   118                           tblptrl	equ	0xFF6
   119                           tablat	equ	0xFF5
   120                           postinc0	equ	0xFEE
   121                           postdec1	equ	0xFE5
   122                           fsr1l	equ	0xFE1
   123                           
   124                           	psect	dataCOMRAM
   125  000001                     __pdataCOMRAM:
   126                           	opt stack 0
   127  000001                     _DEC:
   128                           	opt stack 0
   129  000001                     	ds	20
   130  000015                     _UNI:
   131                           	opt stack 0
   132  000015                     	ds	20
   133                           tblptru	equ	0xFF8
   134                           tblptrh	equ	0xFF7
   135                           tblptrl	equ	0xFF6
   136                           tablat	equ	0xFF5
   137                           postinc0	equ	0xFEE
   138                           postdec1	equ	0xFE5
   139                           fsr1l	equ	0xFE1
   140                           
   141                           	psect	cstackCOMRAM
   142  000029                     __pcstackCOMRAM:
   143                           	opt stack 0
   144  000029                     ??_INT_EXT_0:
   145                           
   146                           ; 0 bytes @ 0x0
   147  000029                     	ds	14
   148  000037                     tblptru	equ	0xFF8
   149                           tblptrh	equ	0xFF7
   150                           tblptrl	equ	0xFF6
   151                           tablat	equ	0xFF5
   152                           postinc0	equ	0xFEE
   153                           postdec1	equ	0xFE5
   154                           fsr1l	equ	0xFE1
   155                           
   156                           ; 0 bytes @ 0xE
   157 ;;
   158 ;;Main: autosize = 0, tempsize = 0, incstack = 0, save=0
   159 ;;
   160 ;; *************** function _main *****************
   161 ;; Defined at:
   162 ;;		line 25 in file "main_inte.c"
   163 ;; Parameters:    Size  Location     Type
   164 ;;		None
   165 ;; Auto vars:     Size  Location     Type
   166 ;;		None
   167 ;; Return value:  Size  Location     Type
   168 ;;		None               void
   169 ;; Registers used:
   170 ;;		wreg, fsr2l, fsr2h, status,2, status,0
   171 ;; Tracked objects:
   172 ;;		On entry : 0/0
   173 ;;		On exit  : 0/0
   174 ;;		Unchanged: 0/0
   175 ;; Data sizes:     COMRAM   BANK0   BANK1   BANK2   BANK3   BANK4   BANK5   BANK6   BANK7
   176 ;;      Params:         0       0       0       0       0       0       0       0       0
   177 ;;      Locals:         0       0       0       0       0       0       0       0       0
   178 ;;      Temps:          0       0       0       0       0       0       0       0       0
   179 ;;      Totals:         0       0       0       0       0       0       0       0       0
   180 ;;Total ram usage:        0 bytes
   181 ;; Hardware stack levels required when called:    1
   182 ;; This function calls:
   183 ;;		Nothing
   184 ;; This function is called by:
   185 ;;		Startup code after reset
   186 ;; This function uses a non-reentrant model
   187 ;;
   188                           
   189                           	psect	text0
   190  000118                     __ptext0:
   191                           	opt stack 0
   192  000118                     _main:
   193                           	opt stack 30
   194                           
   195                           ;main_inte.c: 27: ADCON1 = 0b11111111;
   196                           
   197                           ;incstack = 0
   198  000118  68C1               	setf	4033,c	;volatile
   199                           
   200                           ;main_inte.c: 29: TRISD = 0;
   201  00011A  0E00               	movlw	0
   202  00011C  6E95               	movwf	3989,c	;volatile
   203                           
   204                           ;main_inte.c: 30: TRISC = 0;
   205  00011E  0E00               	movlw	0
   206  000120  6E94               	movwf	3988,c	;volatile
   207                           
   208                           ;main_inte.c: 33: TRISBbits.TRISB0 = 1;
   209  000122  8093               	bsf	3987,0,c	;volatile
   210                           
   211                           ;main_inte.c: 34: TRISBbits.TRISB1 = 1;
   212  000124  8293               	bsf	3987,1,c	;volatile
   213                           
   214                           ;main_inte.c: 35: TRISBbits.TRISB2 = 1;
   215  000126  8493               	bsf	3987,2,c	;volatile
   216                           
   217                           ;main_inte.c: 37: INTCONbits.INT0IE = 1;
   218  000128  88F2               	bsf	intcon,4,c	;volatile
   219                           
   220                           ;main_inte.c: 38: INTCONbits.INT0IF = 0;
   221  00012A  92F2               	bcf	intcon,1,c	;volatile
   222                           
   223                           ;main_inte.c: 39: INTCONbits.PEIE = 1;
   224  00012C  8CF2               	bsf	intcon,6,c	;volatile
   225                           
   226                           ;main_inte.c: 40: INTCONbits.GIE = 1;
   227  00012E  8EF2               	bsf	intcon,7,c	;volatile
   228                           
   229                           ;main_inte.c: 42: INTCON2bits.INTEDG0 = 0;
   230  000130  9CF1               	bcf	intcon2,6,c	;volatile
   231                           
   232                           ;main_inte.c: 43: RCONbits.IPEN = 0;
   233  000132  9ED0               	bcf	4048,7,c	;volatile
   234                           
   235                           ;main_inte.c: 45: INTCON3bits.INT1IE = 1;
   236  000134  86F0               	bsf	intcon3,3,c	;volatile
   237                           
   238                           ;main_inte.c: 46: INTCON3bits.INT2IE = 1;
   239  000136  88F0               	bsf	intcon3,4,c	;volatile
   240  000138                     l669:
   241                           
   242                           ;main_inte.c: 53: LATC = DEC[decenas];
   243  000138  90D8               	bcf	status,0,c
   244  00013A  3437               	rlcf	_decenas,w,c
   245  00013C  6ED9               	movwf	fsr2l,c
   246  00013E  3438               	rlcf	_decenas+1,w,c
   247  000140  6EDA               	movwf	fsr2h,c
   248  000142  0E01               	movlw	low _DEC
   249  000144  26D9               	addwf	fsr2l,f,c
   250  000146  0E00               	movlw	high _DEC
   251  000148  22DA               	addwfc	fsr2h,f,c
   252  00014A  50DF               	movf	indf2,w,c
   253  00014C  6E8B               	movwf	3979,c	;volatile
   254                           
   255                           ;main_inte.c: 54: LATD = UNI[unidades];
   256  00014E  90D8               	bcf	status,0,c
   257  000150  3439               	rlcf	_unidades,w,c
   258  000152  6ED9               	movwf	fsr2l,c
   259  000154  343A               	rlcf	_unidades+1,w,c
   260  000156  6EDA               	movwf	fsr2h,c
   261  000158  0E15               	movlw	low _UNI
   262  00015A  26D9               	addwf	fsr2l,f,c
   263  00015C  0E00               	movlw	high _UNI
   264  00015E  22DA               	addwfc	fsr2h,f,c
   265  000160  50DF               	movf	indf2,w,c
   266  000162  6E8C               	movwf	3980,c	;volatile
   267  000164  D7E9               	goto	l669
   268  000166                     __end_of_main:
   269                           	opt stack 0
   270                           tblptru	equ	0xFF8
   271                           tblptrh	equ	0xFF7
   272                           tblptrl	equ	0xFF6
   273                           tablat	equ	0xFF5
   274                           intcon	equ	0xFF2
   275                           intcon2	equ	0xFF1
   276                           intcon3	equ	0xFF0
   277                           postinc0	equ	0xFEE
   278                           postdec1	equ	0xFE5
   279                           fsr1l	equ	0xFE1
   280                           indf2	equ	0xFDF
   281                           fsr2h	equ	0xFDA
   282                           fsr2l	equ	0xFD9
   283                           status	equ	0xFD8
   284                           
   285 ;; *************** function _INT_EXT_0 *****************
   286 ;; Defined at:
   287 ;;		line 60 in file "main_inte.c"
   288 ;; Parameters:    Size  Location     Type
   289 ;;		None
   290 ;; Auto vars:     Size  Location     Type
   291 ;;		None
   292 ;; Return value:  Size  Location     Type
   293 ;;		None               void
   294 ;; Registers used:
   295 ;;		wreg, status,2, status,0
   296 ;; Tracked objects:
   297 ;;		On entry : 0/0
   298 ;;		On exit  : 0/0
   299 ;;		Unchanged: 0/0
   300 ;; Data sizes:     COMRAM   BANK0   BANK1   BANK2   BANK3   BANK4   BANK5   BANK6   BANK7
   301 ;;      Params:         0       0       0       0       0       0       0       0       0
   302 ;;      Locals:         0       0       0       0       0       0       0       0       0
   303 ;;      Temps:         14       0       0       0       0       0       0       0       0
   304 ;;      Totals:        14       0       0       0       0       0       0       0       0
   305 ;;Total ram usage:       14 bytes
   306 ;; Hardware stack levels used:    1
   307 ;; This function calls:
   308 ;;		Nothing
   309 ;; This function is called by:
   310 ;;		Interrupt level 2
   311 ;; This function uses a non-reentrant model
   312 ;;
   313                           
   314                           	psect	intcode
   315  000008                     __pintcode:
   316                           	opt stack 0
   317  000008                     _INT_EXT_0:
   318                           	opt stack 30
   319                           
   320                           ;incstack = 0
   321  000008  823C               	bsf	btemp,1,c	;set compiler interrupt flag (level 2)
   322  00000A  CFFA F029          	movff	pclath,??_INT_EXT_0
   323  00000E  CFFB F02A          	movff	pclatu,??_INT_EXT_0+1
   324  000012  ED0D  F000         	call	int_func,f	;refresh shadow registers
   325                           pclatu	equ	0xFFB
   326                           pclath	equ	0xFFA
   327                           tblptru	equ	0xFF8
   328                           tblptrh	equ	0xFF7
   329                           tblptrl	equ	0xFF6
   330                           tablat	equ	0xFF5
   331                           intcon	equ	0xFF2
   332                           intcon2	equ	0xFF1
   333                           intcon3	equ	0xFF0
   334                           postinc0	equ	0xFEE
   335                           postdec1	equ	0xFE5
   336                           fsr1l	equ	0xFE1
   337                           indf2	equ	0xFDF
   338                           fsr2h	equ	0xFDA
   339                           fsr2l	equ	0xFD9
   340                           status	equ	0xFD8
   341                           
   342                           	psect	intcode_body
   343  00001A                     __pintcode_body:
   344                           	opt stack 30
   345  00001A                     int_func:
   346                           	opt stack 30
   347  00001A  0006               	pop		; remove dummy address from shadow register refresh
   348  00001C  CFE9 F02B          	movff	fsr0l,??_INT_EXT_0+2
   349  000020  CFEA F02C          	movff	fsr0h,??_INT_EXT_0+3
   350  000024  CFE1 F02D          	movff	fsr1l,??_INT_EXT_0+4
   351  000028  CFE2 F02E          	movff	fsr1h,??_INT_EXT_0+5
   352  00002C  CFD9 F02F          	movff	fsr2l,??_INT_EXT_0+6
   353  000030  CFDA F030          	movff	fsr2h,??_INT_EXT_0+7
   354  000034  CFF3 F031          	movff	prodl,??_INT_EXT_0+8
   355  000038  CFF4 F032          	movff	prodh,??_INT_EXT_0+9
   356  00003C  CFF6 F033          	movff	tblptrl,??_INT_EXT_0+10
   357  000040  CFF7 F034          	movff	tblptrh,??_INT_EXT_0+11
   358  000044  CFF8 F035          	movff	tblptru,??_INT_EXT_0+12
   359  000048  CFF5 F036          	movff	tablat,??_INT_EXT_0+13
   360                           
   361                           ;main_inte.c: 62: if (INTCONbits.INT0IF)
   362  00004C  A2F2               	btfss	intcon,1,c	;volatile
   363  00004E  D016               	goto	i2l683
   364                           
   365                           ;main_inte.c: 63: {
   366                           ;main_inte.c: 64: unidades = unidades + 1;
   367  000050  0E01               	movlw	1
   368  000052  2439               	addwf	_unidades,w,c
   369  000054  6E39               	movwf	_unidades,c
   370  000056  0E00               	movlw	0
   371  000058  203A               	addwfc	_unidades+1,w,c
   372  00005A  6E3A               	movwf	_unidades+1,c
   373                           
   374                           ;main_inte.c: 65: if(unidades == 10)
   375  00005C  0E0A               	movlw	10
   376  00005E  1839               	xorwf	_unidades,w,c
   377  000060  103A               	iorwf	_unidades+1,w,c
   378  000062  A4D8               	btfss	status,2,c
   379  000064  D00A               	goto	i2l681
   380                           
   381                           ;main_inte.c: 66: {
   382                           ;main_inte.c: 67: decenas = decenas + 1;
   383  000066  0E01               	movlw	1
   384  000068  2437               	addwf	_decenas,w,c
   385  00006A  6E37               	movwf	_decenas,c
   386  00006C  0E00               	movlw	0
   387  00006E  2038               	addwfc	_decenas+1,w,c
   388  000070  6E38               	movwf	_decenas+1,c
   389                           
   390                           ;main_inte.c: 68: unidades = 0;
   391  000072  0E00               	movlw	0
   392  000074  6E3A               	movwf	_unidades+1,c
   393  000076  0E00               	movlw	0
   394  000078  6E39               	movwf	_unidades,c
   395  00007A                     i2l681:
   396                           
   397                           ;main_inte.c: 69: }
   398                           ;main_inte.c: 70: INTCONbits.INT0IF = 0;
   399  00007A  92F2               	bcf	intcon,1,c	;volatile
   400  00007C                     i2l683:
   401                           
   402                           ;main_inte.c: 71: }
   403                           ;main_inte.c: 77: if (INTCON3bits.INT1IF)
   404  00007C  A0F0               	btfss	intcon3,0,c	;volatile
   405  00007E  D016               	goto	i2l693
   406                           
   407                           ;main_inte.c: 78: {
   408                           ;main_inte.c: 79: unidades = unidades + 1;
   409  000080  0E01               	movlw	1
   410  000082  2439               	addwf	_unidades,w,c
   411  000084  6E39               	movwf	_unidades,c
   412  000086  0E00               	movlw	0
   413  000088  203A               	addwfc	_unidades+1,w,c
   414  00008A  6E3A               	movwf	_unidades+1,c
   415                           
   416                           ;main_inte.c: 80: if(unidades == 10)
   417  00008C  0E0A               	movlw	10
   418  00008E  1839               	xorwf	_unidades,w,c
   419  000090  103A               	iorwf	_unidades+1,w,c
   420  000092  A4D8               	btfss	status,2,c
   421  000094  D00A               	goto	i2l691
   422                           
   423                           ;main_inte.c: 81: {
   424                           ;main_inte.c: 82: decenas = decenas + 1;
   425  000096  0E01               	movlw	1
   426  000098  2437               	addwf	_decenas,w,c
   427  00009A  6E37               	movwf	_decenas,c
   428  00009C  0E00               	movlw	0
   429  00009E  2038               	addwfc	_decenas+1,w,c
   430  0000A0  6E38               	movwf	_decenas+1,c
   431                           
   432                           ;main_inte.c: 83: unidades = 0;
   433  0000A2  0E00               	movlw	0
   434  0000A4  6E3A               	movwf	_unidades+1,c
   435  0000A6  0E00               	movlw	0
   436  0000A8  6E39               	movwf	_unidades,c
   437  0000AA                     i2l691:
   438                           
   439                           ;main_inte.c: 84: }
   440                           ;main_inte.c: 85: INTCON3bits.INT1IF = 0;
   441  0000AA  90F0               	bcf	intcon3,0,c	;volatile
   442  0000AC                     i2l693:
   443                           
   444                           ;main_inte.c: 86: }
   445                           ;main_inte.c: 90: if (INTCON3bits.INT2IF)
   446  0000AC  A2F0               	btfss	intcon3,1,c	;volatile
   447  0000AE  D016               	goto	i2l45
   448                           
   449                           ;main_inte.c: 91: {
   450                           ;main_inte.c: 92: unidades = unidades + 1;
   451  0000B0  0E01               	movlw	1
   452  0000B2  2439               	addwf	_unidades,w,c
   453  0000B4  6E39               	movwf	_unidades,c
   454  0000B6  0E00               	movlw	0
   455  0000B8  203A               	addwfc	_unidades+1,w,c
   456  0000BA  6E3A               	movwf	_unidades+1,c
   457                           
   458                           ;main_inte.c: 93: if(unidades == 10)
   459  0000BC  0E0A               	movlw	10
   460  0000BE  1839               	xorwf	_unidades,w,c
   461  0000C0  103A               	iorwf	_unidades+1,w,c
   462  0000C2  A4D8               	btfss	status,2,c
   463  0000C4  D00A               	goto	i2l701
   464                           
   465                           ;main_inte.c: 94: {
   466                           ;main_inte.c: 95: decenas = decenas + 1;
   467  0000C6  0E01               	movlw	1
   468  0000C8  2437               	addwf	_decenas,w,c
   469  0000CA  6E37               	movwf	_decenas,c
   470  0000CC  0E00               	movlw	0
   471  0000CE  2038               	addwfc	_decenas+1,w,c
   472  0000D0  6E38               	movwf	_decenas+1,c
   473                           
   474                           ;main_inte.c: 96: unidades = 0;
   475  0000D2  0E00               	movlw	0
   476  0000D4  6E3A               	movwf	_unidades+1,c
   477  0000D6  0E00               	movlw	0
   478  0000D8  6E39               	movwf	_unidades,c
   479  0000DA                     i2l701:
   480                           
   481                           ;main_inte.c: 97: }
   482                           ;main_inte.c: 98: INTCON3bits.INT2IF = 0;
   483  0000DA  92F0               	bcf	intcon3,1,c	;volatile
   484  0000DC                     i2l45:
   485  0000DC  C036  FFF5         	movff	??_INT_EXT_0+13,tablat
   486  0000E0  C035  FFF8         	movff	??_INT_EXT_0+12,tblptru
   487  0000E4  C034  FFF7         	movff	??_INT_EXT_0+11,tblptrh
   488  0000E8  C033  FFF6         	movff	??_INT_EXT_0+10,tblptrl
   489  0000EC  C032  FFF4         	movff	??_INT_EXT_0+9,prodh
   490  0000F0  C031  FFF3         	movff	??_INT_EXT_0+8,prodl
   491  0000F4  C030  FFDA         	movff	??_INT_EXT_0+7,fsr2h
   492  0000F8  C02F  FFD9         	movff	??_INT_EXT_0+6,fsr2l
   493  0000FC  C02E  FFE2         	movff	??_INT_EXT_0+5,fsr1h
   494  000100  C02D  FFE1         	movff	??_INT_EXT_0+4,fsr1l
   495  000104  C02C  FFEA         	movff	??_INT_EXT_0+3,fsr0h
   496  000108  C02B  FFE9         	movff	??_INT_EXT_0+2,fsr0l
   497  00010C  C02A  FFFB         	movff	??_INT_EXT_0+1,pclatu
   498  000110  C029  FFFA         	movff	??_INT_EXT_0,pclath
   499  000114  923C               	bcf	btemp,1,c	;clear compiler interrupt flag (level 2)
   500  000116  0011               	retfie		f
   501  000118                     __end_of_INT_EXT_0:
   502                           	opt stack 0
   503  0000                     pclatu	equ	0xFFB
   504                           pclath	equ	0xFFA
   505                           tblptru	equ	0xFF8
   506                           tblptrh	equ	0xFF7
   507                           tblptrl	equ	0xFF6
   508                           tablat	equ	0xFF5
   509                           prodh	equ	0xFF4
   510                           prodl	equ	0xFF3
   511                           intcon	equ	0xFF2
   512                           intcon2	equ	0xFF1
   513                           intcon3	equ	0xFF0
   514                           postinc0	equ	0xFEE
   515                           fsr0h	equ	0xFEA
   516                           fsr0l	equ	0xFE9
   517                           postdec1	equ	0xFE5
   518                           fsr1h	equ	0xFE2
   519                           fsr1l	equ	0xFE1
   520                           indf2	equ	0xFDF
   521                           fsr2h	equ	0xFDA
   522                           fsr2l	equ	0xFD9
   523                           status	equ	0xFD8
   524                           pclatu	equ	0xFFB
   525                           pclath	equ	0xFFA
   526                           tblptru	equ	0xFF8
   527                           tblptrh	equ	0xFF7
   528                           tblptrl	equ	0xFF6
   529                           tablat	equ	0xFF5
   530                           prodh	equ	0xFF4
   531                           prodl	equ	0xFF3
   532                           intcon	equ	0xFF2
   533                           intcon2	equ	0xFF1
   534                           intcon3	equ	0xFF0
   535                           postinc0	equ	0xFEE
   536                           fsr0h	equ	0xFEA
   537                           fsr0l	equ	0xFE9
   538                           postdec1	equ	0xFE5
   539                           fsr1h	equ	0xFE2
   540                           fsr1l	equ	0xFE1
   541                           indf2	equ	0xFDF
   542                           fsr2h	equ	0xFDA
   543                           fsr2l	equ	0xFD9
   544                           status	equ	0xFD8
   545                           
   546                           	psect	rparam
   547  0000                     pclatu	equ	0xFFB
   548                           pclath	equ	0xFFA
   549                           tblptru	equ	0xFF8
   550                           tblptrh	equ	0xFF7
   551                           tblptrl	equ	0xFF6
   552                           tablat	equ	0xFF5
   553                           prodh	equ	0xFF4
   554                           prodl	equ	0xFF3
   555                           intcon	equ	0xFF2
   556                           intcon2	equ	0xFF1
   557                           intcon3	equ	0xFF0
   558                           postinc0	equ	0xFEE
   559                           fsr0h	equ	0xFEA
   560                           fsr0l	equ	0xFE9
   561                           postdec1	equ	0xFE5
   562                           fsr1h	equ	0xFE2
   563                           fsr1l	equ	0xFE1
   564                           indf2	equ	0xFDF
   565                           fsr2h	equ	0xFDA
   566                           fsr2l	equ	0xFD9
   567                           status	equ	0xFD8
   568                           
   569                           	psect	temp
   570  00003C                     btemp:
   571                           	opt stack 0
   572  00003C                     	ds	1
   573  0000                     int$flags	set	btemp
   574                           pclatu	equ	0xFFB
   575                           pclath	equ	0xFFA
   576                           tblptru	equ	0xFF8
   577                           tblptrh	equ	0xFF7
   578                           tblptrl	equ	0xFF6
   579                           tablat	equ	0xFF5
   580                           prodh	equ	0xFF4
   581                           prodl	equ	0xFF3
   582                           intcon	equ	0xFF2
   583                           intcon2	equ	0xFF1
   584                           intcon3	equ	0xFF0
   585                           postinc0	equ	0xFEE
   586                           fsr0h	equ	0xFEA
   587                           fsr0l	equ	0xFE9
   588                           postdec1	equ	0xFE5
   589                           fsr1h	equ	0xFE2
   590                           fsr1l	equ	0xFE1
   591                           indf2	equ	0xFDF
   592                           fsr2h	equ	0xFDA
   593                           fsr2l	equ	0xFD9
   594                           status	equ	0xFD8


Data Sizes:
    Strings     0
    Constant    0
    Data        40
    BSS         5
    Persistent  0
    Stack       0

Auto Spaces:
    Space          Size  Autos    Used
    COMRAM           94     14      59
    BANK0           160      0       0
    BANK1           256      0       0
    BANK2           256      0       0
    BANK3           256      0       0
    BANK4           256      0       0
    BANK5           256      0       0
    BANK6           256      0       0
    BANK7           256      0       0

Pointer List with Targets:

    None.

Critical Paths under _main in COMRAM

    None.

Critical Paths under _INT_EXT_0 in COMRAM

    None.

Critical Paths under _main in BANK0

    None.

Critical Paths under _INT_EXT_0 in BANK0

    None.

Critical Paths under _main in BANK1

    None.

Critical Paths under _INT_EXT_0 in BANK1

    None.

Critical Paths under _main in BANK2

    None.

Critical Paths under _INT_EXT_0 in BANK2

    None.

Critical Paths under _main in BANK3

    None.

Critical Paths under _INT_EXT_0 in BANK3

    None.

Critical Paths under _main in BANK4

    None.

Critical Paths under _INT_EXT_0 in BANK4

    None.

Critical Paths under _main in BANK5

    None.

Critical Paths under _INT_EXT_0 in BANK5

    None.

Critical Paths under _main in BANK6

    None.

Critical Paths under _INT_EXT_0 in BANK6

    None.

Critical Paths under _main in BANK7

    None.

Critical Paths under _INT_EXT_0 in BANK7

    None.

Call Graph Tables:

 ---------------------------------------------------------------------------------
 (Depth) Function   	        Calls       Base Space   Used Autos Params    Refs
 ---------------------------------------------------------------------------------
 (0) _main                                                 0     0      0       0
 ---------------------------------------------------------------------------------
 Estimated maximum stack depth 0
 ---------------------------------------------------------------------------------
 (Depth) Function   	        Calls       Base Space   Used Autos Params    Refs
 ---------------------------------------------------------------------------------
 (1) _INT_EXT_0                                           14    14      0       0
                                              0 COMRAM    14    14      0
 ---------------------------------------------------------------------------------
 Estimated maximum stack depth 1
 ---------------------------------------------------------------------------------

 Call Graph Graphs:

 _main (ROOT)

 _INT_EXT_0 (ROOT)

 Address spaces:
Name               Size   Autos  Total    Cost      Usage
BIGRAM             7FF      0       0      21        0.0%
EEDATA             100      0       0       0        0.0%
BITBANK7           100      0       0      18        0.0%
BANK7              100      0       0      19        0.0%
BITBANK6           100      0       0      16        0.0%
BANK6              100      0       0      17        0.0%
BITBANK5           100      0       0      14        0.0%
BANK5              100      0       0      15        0.0%
BITBANK4           100      0       0      12        0.0%
BANK4              100      0       0      13        0.0%
BITBANK3           100      0       0      10        0.0%
BANK3              100      0       0      11        0.0%
BITBANK2           100      0       0       8        0.0%
BANK2              100      0       0       9        0.0%
BITBANK1           100      0       0       6        0.0%
BANK1              100      0       0       7        0.0%
BITBANK0            A0      0       0       4        0.0%
BANK0               A0      0       0       5        0.0%
BITCOMRAM           5E      0       0       0        0.0%
COMRAM              5E      E      3B       1       62.8%
BITSFR               0      0       0      40        0.0%
SFR                  0      0       0      40        0.0%
STACK                0      0       0       2        0.0%
NULL                 0      0       0       0        0.0%
ABS                  0      0      3B      20        0.0%
DATA                 0      0      3B       3        0.0%
CODE                 0      0       0       0        0.0%


Microchip Technology PIC18 Macro Assembler V1.35 build -356382666 
Symbol Table                                                                                   Tue Jun 14 12:56:26 2022

                      _i 003B              __CFG_BORV$3 000000             __CFG_CP0$OFF 000000  
           __CFG_CP1$OFF 000000             __CFG_CP2$OFF 000000             __CFG_CP3$OFF 000000  
                    _DEC 0001                      l669 0138             __CFG_CPB$OFF 000000  
           __CFG_CPD$OFF 000000                      _UNI 0015             __CFG_BOR$OFF 000000  
           __CFG_FOSC$HS 000000             __CFG_LVP$OFF 000000             __CFG_WDT$OFF 000000  
                   _LATC 000F8B                     _LATD 000F8C                     i2l45 00DC  
                   _main 0118                     fsr0h 000FEA                     fsr1h 000FE2  
                   fsr0l 000FE9                     fsr2h 000FDA                     fsr1l 000FE1  
                   indf2 000FDF                     fsr2l 000FD9                     btemp 003C  
                   pclat 000FFA                     prodh 000FF4                     prodl 000FF3  
                   start 0016            __CFG_IESO$OFF 000000            __CFG_MCLRE$ON 000000  
           ___param_bank 000010       __size_of_INT_EXT_0 0110            __CFG_PLLDIV$5 000000  
         __CFG_CCP2MX$ON 000000                    ?_main 0029                    i2l701 00DA  
                  i2l681 007A                    i2l691 00AA                    i2l683 007C  
                  i2l693 00AC            __CFG_USBDIV$1 000000                    _TRISC 000F94  
                  _TRISD 000F95            __CFG_PWRT$OFF 000000            __CFG_WRT0$OFF 000000  
          __CFG_WRT1$OFF 000000            __CFG_WRT2$OFF 000000            __CFG_WRT3$OFF 000000  
         __CFG_EBTR0$OFF 000000           __CFG_FCMEN$OFF 000000           __CFG_EBTR1$OFF 000000  
         __CFG_EBTR2$OFF 000000           __CFG_EBTR3$OFF 000000            __CFG_WRTB$OFF 000000  
          __CFG_WRTC$OFF 000000            __CFG_WRTD$OFF 000000           __CFG_EBTRB$OFF 000000  
                  tablat 000FF5                    status 000FD8           __CFG_ICPRT$OFF 000000  
         __CFG_PBADEN$ON 000000          __initialization 0166             __end_of_main 0166  
                 ??_main 0037            __activetblptr 000000                   _ADCON1 000FC1  
      __end_of_INT_EXT_0 0118           __CFG_XINST$OFF 000000           __CFG_STVREN$ON 000000  
           __pdataCOMRAM 0001                   tblptrh 000FF7                   tblptrl 000FF6  
                 tblptru 000FF8               __accesstop 0060  __end_of__initialization 0190  
          ___rparam_used 000001           __pcstackCOMRAM 0029          __CFG_VREGEN$OFF 000000  
                __Hparam 0000                  __Lparam 0000                  _decenas 0037  
                __pcinit 0166                  __ramtop 0800                  __ptext0 0118  
         __pintcode_body 001A     end_of_initialization 0190                  int_func 001A  
              _INT_EXT_0 0008                  postdec1 000FE5                  postinc0 000FEE  
              _TRISBbits 000F93               ?_INT_EXT_0 0029            __pidataCOMRAM 019A  
    start_initialization 0166         __CFG_LPT1OSC$OFF 000000              __pbssCOMRAM 0037  
            ??_INT_EXT_0 0029                __pintcode 0008                 _RCONbits 000FD0  
       __CFG_WDTPS$32768 000000              _INTCON2bits 000FF1              _INTCON3bits 000FF0  
              copy_data0 0184                 __Hrparam 0000                 __Lrparam 0000  
          __size_of_main 004E                 int$flags 003C                 _unidades 0039  
  __CFG_CPUDIV$OSC1_PLL2 000000               _INTCONbits 000FF2                 intlevel2 0000  
